; Function Attrs: nounwind sspstrong uwtable
define hidden void @rb_clear_method_cache(i64 noundef %0, i64 noundef %1) local_unnamed_addr #2 {
  %3 = icmp eq i64 %0, 0
  %4 = and i64 %0, 7
  %5 = icmp ne i64 %4, 0
  %6 = or i1 %3, %5
  br i1 %6, label %rbimpl_RB_TYPE_P_fastpath.exit.thread, label %rbimpl_RB_TYPE_P_fastpath.exit

rbimpl_RB_TYPE_P_fastpath.exit:                   ; preds = %2
  %7 = inttoptr i64 %0 to ptr
  %8 = load i64, ptr %7, align 8, !tbaa !97
  %9 = and i64 %8, 31
  %10 = icmp eq i64 %9, 3
  br i1 %10, label %RB_FL_TEST.exit, label %rbimpl_RB_TYPE_P_fastpath.exit.thread

RB_FL_TEST.exit:                                  ; preds = %rbimpl_RB_TYPE_P_fastpath.exit
  %11 = and i64 %8, 32768
  %.not14 = icmp eq i64 %11, 0
  br i1 %.not14, label %14, label %12

12:                                               ; preds = %RB_FL_TEST.exit
  %13 = tail call i64 @rb_refinement_module_get_refined_class(i64 noundef %0) #21
  tail call void @rb_clear_method_cache(i64 noundef %13, i64 noundef %1)
  tail call void @rb_class_foreach_subclass(i64 noundef %13, ptr noundef nonnull @clear_iclass_method_cache_by_id_for_refinements, i64 noundef %1) #21
  tail call void @rb_objspace_each_objects(ptr noundef nonnull @invalidate_all_refinement_cc, ptr noundef null) #21
  tail call void @rb_yjit_invalidate_all_method_lookup_assumptions() #21
  br label %14

14:                                               ; preds = %12, %RB_FL_TEST.exit
  tail call void @rb_class_foreach_subclass(i64 noundef %0, ptr noundef nonnull @clear_iclass_method_cache_by_id, i64 noundef %1) #21
  br label %15

rbimpl_RB_TYPE_P_fastpath.exit.thread:            ; preds = %2, %rbimpl_RB_TYPE_P_fastpath.exit
  tail call fastcc void @clear_method_cache_by_id_in_class(i64 noundef %0, i64 noundef %1)
  br label %15

15:                                               ; preds = %rbimpl_RB_TYPE_P_fastpath.exit.thread, %14
  ret void
}